target datalayout = "e-m:e-p270:32:32-p271:32:32-p272:64:64-i64:64-i128:128-f80:128-n8:16:32:64-S128"
target triple = "x86_64-pc-linux-gnu"

%union.pthread_mutex_t = type { %struct.__pthread_mutex_s }
%struct.__pthread_mutex_s = type { i32, i32, i32, i32, i32, i16, i16, %struct.__pthread_internal_list }
%struct.__pthread_internal_list = type { ptr, ptr }
%struct._stritem = type { ptr, ptr, ptr, i32, i32, i32, i16, i16, i8, i8, [0 x %union.anon.12] }
%union.anon.12 = type { i64 }

@item_locks = internal global ptr null, align 8
@item_lock_hashpower = internal global i32 0, align 4
@hash = external global ptr, align 8

; Function Attrs: nounwind uwtable
define dso_local void @item_unlock(i32 noundef %0) #0 {
  %2 = alloca i32, align 4
  store i32 %0, ptr %2, align 4, !tbaa !4
  %3 = load ptr, ptr @item_locks, align 8, !tbaa !8
  %4 = load i32, ptr %2, align 4, !tbaa !4
  %5 = zext i32 %4 to i64
  %6 = load i32, ptr @item_lock_hashpower, align 4, !tbaa !4
  %7 = zext i32 %6 to i64
  %8 = shl i64 1, %7
  %9 = sub i64 %8, 1
  %10 = and i64 %5, %9
  %11 = getelementptr inbounds nuw %union.pthread_mutex_t, ptr %3, i64 %10
  %12 = call i32 @pthread_mutex_unlock(ptr noundef %11) #8
  ret void
}

; Function Attrs: nounwind uwtable
define dso_local void @item_lock(i32 noundef %0) #0 {
  %2 = alloca i32, align 4
  store i32 %0, ptr %2, align 4, !tbaa !4
  %3 = load ptr, ptr @item_locks, align 8, !tbaa !8
  %4 = load i32, ptr %2, align 4, !tbaa !4
  %5 = zext i32 %4 to i64
  %6 = load i32, ptr @item_lock_hashpower, align 4, !tbaa !4
  %7 = zext i32 %6 to i64
  %8 = shl i64 1, %7
  %9 = sub i64 %8, 1
  %10 = and i64 %5, %9
  %11 = getelementptr inbounds nuw %union.pthread_mutex_t, ptr %3, i64 %10
  %12 = call i32 @pthread_mutex_lock(ptr noundef %11) #8
  ret void
}

; Function Attrs: nounwind uwtable
define dso_local void @item_unlink(ptr noundef %0) #0 {
  %2 = alloca ptr, align 8
  %3 = alloca i32, align 4
  store ptr %0, ptr %2, align 8, !tbaa !97
  call void @llvm.lifetime.start.p0(i64 4, ptr %3) #8
  %4 = load ptr, ptr @hash, align 8, !tbaa !8
  %5 = load ptr, ptr %2, align 8, !tbaa !97
  %6 = getelementptr inbounds nuw %struct._stritem, ptr %5, i32 0, i32 10
  %7 = load ptr, ptr %2, align 8, !tbaa !97
  %8 = getelementptr inbounds nuw %struct._stritem, ptr %7, i32 0, i32 7
  %9 = load i16, ptr %8, align 2, !tbaa !101
  %10 = zext i16 %9 to i32
  %11 = and i32 %10, 2
  %12 = icmp ne i32 %11, 0
  %13 = select i1 %12, i64 8, i64 0
  %14 = getelementptr inbounds nuw i8, ptr %6, i64 %13
  %15 = load ptr, ptr %2, align 8, !tbaa !97
  %16 = getelementptr inbounds nuw %struct._stritem, ptr %15, i32 0, i32 9
  %17 = load i8, ptr %16, align 1, !tbaa !102
  %18 = zext i8 %17 to i64
  %19 = call i32 %4(ptr noundef %14, i64 noundef %18)
  store i32 %19, ptr %3, align 4, !tbaa !4
  %20 = load i32, ptr %3, align 4, !tbaa !4
  call void @item_lock(i32 noundef %20)
  %21 = load ptr, ptr %2, align 8, !tbaa !97
  %22 = load i32, ptr %3, align 4, !tbaa !4
  call void @do_item_unlink(ptr noundef %21, i32 noundef %22)
  %23 = load i32, ptr %3, align 4, !tbaa !4
  call void @item_unlock(i32 noundef %23)
  call void @llvm.lifetime.end.p0(i64 4, ptr %3) #8
  ret void
}