; Function Attrs: nounwind uwtable
define dso_local void @item_unlink(ptr noundef %0) local_unnamed_addr #0 {
  %2 = load ptr, ptr @hash, align 8, !tbaa !4
  %3 = getelementptr inbounds nuw i8, ptr %0, i64 48
  %4 = getelementptr inbounds nuw i8, ptr %0, i64 38
  %5 = load i16, ptr %4, align 2, !tbaa !96
  %6 = shl i16 %5, 2
  %7 = and i16 %6, 8
  %8 = zext nneg i16 %7 to i64
  %9 = getelementptr inbounds nuw i8, ptr %3, i64 %8
  %10 = getelementptr inbounds nuw i8, ptr %0, i64 41
  %11 = load i8, ptr %10, align 1, !tbaa !97
  %12 = zext i8 %11 to i64
  %13 = tail call i32 %2(ptr noundef nonnull %9, i64 noundef %12) #15
  %14 = load ptr, ptr @item_locks, align 8, !tbaa !4
  %15 = zext i32 %13 to i64
  %16 = load i32, ptr @item_lock_hashpower, align 4, !tbaa !8
  %17 = zext nneg i32 %16 to i64
  %notmask.i = shl nsw i64 -1, %17
  %18 = xor i64 %notmask.i, -1
  %19 = and i64 %18, %15
  %20 = getelementptr inbounds nuw %union.pthread_mutex_t, ptr %14, i64 %19
  %21 = tail call i32 @pthread_mutex_lock(ptr noundef %20) #15
  tail call void @do_item_unlink(ptr noundef %0, i32 noundef %13) #15
  %22 = load ptr, ptr @item_locks, align 8, !tbaa !4
  %23 = load i32, ptr @item_lock_hashpower, align 4, !tbaa !8
  %24 = zext nneg i32 %23 to i64
  %notmask.i6 = shl nsw i64 -1, %24
  %25 = xor i64 %notmask.i6, -1
  %26 = and i64 %25, %15
  %27 = getelementptr inbounds nuw %union.pthread_mutex_t, ptr %22, i64 %26
  %28 = tail call i32 @pthread_mutex_unlock(ptr noundef %27) #15
  ret void
}